target datalayout = "e-m:e-p270:32:32-p271:32:32-p272:64:64-i64:64-i128:128-f80:128-n8:16:32:64-S128"
target triple = "x86_64-pc-linux-gnu"

@hf_infiniband_IETH = internal global i32 0, align 4
@ett_ieth = internal global i32 0, align 4
@.str.1230 = private unnamed_addr constant [3 x i8] c"%s\00", align 1
@.str.1584 = private unnamed_addr constant [44 x i8] c"IETH - Invalidate Extended Transport Header\00", align 1

; Function Attrs: null_pointer_is_valid sspstrong uwtable
define internal void @parse_IETH(ptr noundef %0, ptr noundef %1, ptr noundef %2) #0 {
  %4 = alloca ptr, align 8
  %5 = alloca ptr, align 8
  %6 = alloca ptr, align 8
  %7 = alloca i32, align 4
  %8 = alloca ptr, align 8
  %9 = alloca ptr, align 8
  store ptr %0, ptr %4, align 8
  store ptr %1, ptr %5, align 8
  store ptr %2, ptr %6, align 8
  call void @llvm.lifetime.start.p0(i64 4, ptr %7) #18
  %10 = load ptr, ptr %6, align 8
  %11 = load i32, ptr %10, align 4
  store i32 %11, ptr %7, align 4
  call void @llvm.lifetime.start.p0(i64 8, ptr %8) #18
  call void @llvm.lifetime.start.p0(i64 8, ptr %9) #18
  %12 = load ptr, ptr %4, align 8
  %13 = load i32, ptr @hf_infiniband_IETH, align 4
  %14 = load ptr, ptr %5, align 8
  %15 = load i32, ptr %7, align 4
  %16 = call ptr @proto_tree_add_item(ptr noundef %12, i32 noundef %13, ptr noundef %14, i32 noundef %15, i32 noundef 4, i32 noundef 0)
  store ptr %16, ptr %8, align 8
  %17 = load ptr, ptr %8, align 8
  call void (ptr, ptr, ...) @proto_item_set_text(ptr noundef %17, ptr noundef @.str.1230, ptr noundef @.str.1584)
  %18 = load ptr, ptr %8, align 8
  %19 = load i32, ptr @ett_ieth, align 4
  %20 = call ptr @proto_item_add_subtree(ptr noundef %18, i32 noundef %19)
  store ptr %20, ptr %9, align 8
  %21 = load ptr, ptr %9, align 8
  %22 = load i32, ptr @hf_infiniband_IETH, align 4
  %23 = load ptr, ptr %5, align 8
  %24 = load i32, ptr %7, align 4
  %25 = call ptr @proto_tree_add_item(ptr noundef %21, i32 noundef %22, ptr noundef %23, i32 noundef %24, i32 noundef 4, i32 noundef 0)
  %26 = load i32, ptr %7, align 4
  %27 = add i32 %26, 4
  store i32 %27, ptr %7, align 4
  %28 = load i32, ptr %7, align 4
  %29 = load ptr, ptr %6, align 8
  store i32 %28, ptr %29, align 4
  call void @llvm.lifetime.end.p0(i64 8, ptr %9) #18
  call void @llvm.lifetime.end.p0(i64 8, ptr %8) #18
  call void @llvm.lifetime.end.p0(i64 4, ptr %7) #18
  ret void
}