; Function Attrs: null_pointer_is_valid sspstrong uwtable
define internal fastcc void @parse_IETH(ptr noundef %0, ptr noundef %1, ptr noundef captures(none) %2) unnamed_addr #0 {
  %4 = load i32, ptr %2, align 4
  %5 = load i32, ptr @hf_infiniband_IETH, align 4
  %6 = tail call ptr @proto_tree_add_item(ptr noundef %0, i32 noundef %5, ptr noundef %1, i32 noundef %4, i32 noundef 4, i32 noundef 0)
  tail call void (ptr, ptr, ...) @proto_item_set_text(ptr noundef %6, ptr noundef nonnull @.str.1230, ptr noundef nonnull @.str.1584)
  %7 = load i32, ptr @ett_ieth, align 4
  %8 = tail call ptr @proto_item_add_subtree(ptr noundef %6, i32 noundef %7)
  %9 = load i32, ptr @hf_infiniband_IETH, align 4
  %10 = tail call ptr @proto_tree_add_item(ptr noundef %8, i32 noundef %9, ptr noundef %1, i32 noundef %4, i32 noundef 4, i32 noundef 0)
  %11 = add i32 %4, 4
  store i32 %11, ptr %2, align 4
  ret void
}